; Function Attrs: mustprogress nounwind uwtable
define hidden void @_ZNK14ShenandoahHeap19heap_region_iterateEP27ShenandoahHeapRegionClosure(ptr nocapture noundef nonnull readonly align 8 dereferenceable(2657) %0, ptr noundef %1) local_unnamed_addr #1 align 2 {
  %3 = getelementptr inbounds i8, ptr %0, i64 544
  %4 = load i64, ptr %3, align 8
  %.not = icmp eq i64 %4, 0
  br i1 %.not, label %._crit_edge, label %_ZNK14ShenandoahHeap10get_regionEm.exit.lr.ph

_ZNK14ShenandoahHeap10get_regionEm.exit.lr.ph:    ; preds = %2
  %5 = getelementptr inbounds i8, ptr %0, i64 552
  br label %_ZNK14ShenandoahHeap10get_regionEm.exit

_ZNK14ShenandoahHeap10get_regionEm.exit:          ; preds = %_ZNK14ShenandoahHeap10get_regionEm.exit.lr.ph, %_ZNK14ShenandoahHeap10get_regionEm.exit
  %.05 = phi i64 [ 0, %_ZNK14ShenandoahHeap10get_regionEm.exit.lr.ph ], [ %11, %_ZNK14ShenandoahHeap10get_regionEm.exit ]
  %6 = load ptr, ptr %5, align 8
  %7 = getelementptr inbounds ptr, ptr %6, i64 %.05
  %8 = load ptr, ptr %7, align 8
  %9 = load ptr, ptr %1, align 8
  %10 = load ptr, ptr %9, align 8
  tail call void %10(ptr noundef nonnull align 8 dereferenceable(8) %1, ptr noundef %8) #26
  %11 = add nuw i64 %.05, 1
  %12 = load i64, ptr %3, align 8
  %13 = icmp ult i64 %11, %12
  br i1 %13, label %_ZNK14ShenandoahHeap10get_regionEm.exit, label %._crit_edge, !llvm.loop !46

._crit_edge:                                      ; preds = %_ZNK14ShenandoahHeap10get_regionEm.exit, %2
  ret void
}